; Function Attrs: null_pointer_is_valid sspstrong uwtable
define internal i32 @dissect_s1ap_ENB_UE_S1AP_ID(ptr noundef %0, i32 noundef %1, ptr noundef %2, ptr noundef %3, i32 noundef %4) #0 {
  %6 = alloca i32, align 4
  call void @llvm.lifetime.start.p0(i64 4, ptr nonnull %6) #8
  %7 = getelementptr inbounds nuw i8, ptr %2, i64 16
  %8 = load ptr, ptr %7, align 8
  %9 = getelementptr inbounds nuw i8, ptr %8, i64 408
  %10 = load ptr, ptr %9, align 8
  %11 = load i32, ptr @proto_s1ap, align 4
  %12 = tail call ptr @p_get_proto_data(ptr noundef %10, ptr noundef %8, i32 noundef %11, i32 noundef 0)
  %.not.i = icmp eq ptr %12, null
  br i1 %.not.i, label %13, label %s1ap_get_private_data.exit

13:                                               ; preds = %5
  %14 = load ptr, ptr %9, align 8
  %15 = tail call noalias dereferenceable_or_null(64) ptr @wmem_alloc0(ptr noundef %14, i64 noundef 64) #9
  %16 = load ptr, ptr %9, align 8
  %17 = load i32, ptr @proto_s1ap, align 4
  tail call void @p_add_proto_data(ptr noundef %16, ptr noundef %8, i32 noundef %17, i32 noundef 0, ptr noundef %15)
  br label %s1ap_get_private_data.exit

s1ap_get_private_data.exit:                       ; preds = %5, %13
  %.0.i = phi ptr [ %12, %5 ], [ %15, %13 ]
  %18 = call i32 @dissect_per_constrained_integer(ptr noundef %0, i32 noundef %1, ptr noundef %2, ptr noundef %3, i32 noundef %4, i32 noundef 0, i32 noundef 16777215, ptr noundef nonnull %6, i1 noundef zeroext false)
  %19 = load i32, ptr @hf_s1ap_eNB_UE_S1AP_ID, align 4
  %20 = icmp eq i32 %4, %19
  br i1 %20, label %21, label %proto_item_set_hidden.exit

21:                                               ; preds = %s1ap_get_private_data.exit
  %22 = load i32, ptr @hf_s1ap_ENB_UE_S1AP_ID_PDU, align 4
  %23 = load i32, ptr %6, align 4
  %24 = call ptr @proto_tree_add_uint(ptr noundef %3, i32 noundef %22, ptr noundef %0, i32 noundef %18, i32 noundef 0, i32 noundef %23)
  %.not.i12 = icmp eq ptr %24, null
  br i1 %.not.i12, label %proto_item_set_hidden.exit, label %25

25:                                               ; preds = %21
  %26 = getelementptr inbounds nuw i8, ptr %24, i64 40
  %27 = load ptr, ptr %26, align 8
  %.not5.i = icmp eq ptr %27, null
  br i1 %.not5.i, label %proto_item_set_hidden.exit, label %28

28:                                               ; preds = %25
  %29 = getelementptr inbounds nuw i8, ptr %27, i64 28
  %30 = load i32, ptr %29, align 4
  %31 = or i32 %30, 1
  store i32 %31, ptr %29, align 4
  br label %proto_item_set_hidden.exit

proto_item_set_hidden.exit:                       ; preds = %28, %25, %21, %s1ap_get_private_data.exit
  %32 = load i32, ptr %6, align 4
  %33 = trunc i32 %32 to i16
  %34 = getelementptr inbounds nuw i8, ptr %.0.i, i64 56
  store i16 %33, ptr %34, align 8
  call void @llvm.lifetime.end.p0(i64 4, ptr nonnull %6) #8
  ret i32 %18
}